ccopy_reg
_reconstructor
p1
(ctensorflow.contrib.learn.python.learn.preprocessing.text
VocabularyProcessor
p2
c__builtin__
object
p3
NtRp4
(dp5
S'vocabulary_'
p6
g1
(ctensorflow.contrib.learn.python.learn.preprocessing.categorical_vocabulary
CategoricalVocabulary
p7
g3
NtRp8
(dp9
S'_freeze'
p10
I00
sS'_unknown_token'
p11
S'<UNK>'
p12
sS'_support_reverse'
p13
I01
sS'_freq'
p14
ccollections
defaultdict
p15
(c__builtin__
int
p16
tRp17
sS'_mapping'
p18
(dp19
g12
I0
ssS'_reverse_mapping'
p20
(lp21
g12
asbsS'max_document_length'
p22
I100
sS'_tokenizer'
p23
ctensorflow.contrib.learn.python.learn.preprocessing.text
tokenizer
p24
sS'min_frequency'
p25
I0
sb.